target datalayout = "e-m:e-p270:32:32-p271:32:32-p272:64:64-i64:64-i128:128-f80:128-n8:16:32:64-S128"
target triple = "x86_64-pc-linux-gnu"

%struct.rb_data_type_struct = type { ptr, %struct.anon, ptr, ptr, i64 }
%struct.anon = type { ptr, ptr, ptr, ptr, [1 x ptr] }
%struct.time_object = type { i64, %struct.vtm }
%struct.vtm = type { i64, i64, i64, i64, i64 }
%struct.RBasic = type { i64, i64 }
%struct.RString = type { %struct.RBasic, i64, %union.anon.13 }
%union.anon.13 = type { %struct.anon.14 }
%struct.anon.14 = type { ptr, %union.anon.15 }
%union.anon.15 = type { i64 }
%struct.anon.16 = type { [1 x i8] }
%struct.OnigEncodingTypeST = type { ptr, ptr, i32, i32, ptr, ptr, ptr, ptr, ptr, ptr, ptr, ptr, ptr, ptr, ptr, ptr, ptr, i32, i32 }

@rb_eArgError = external global i64, align 8
@time_data_type = internal constant %struct.rb_data_type_struct { ptr @.str.96, %struct.anon { ptr @time_mark, ptr inttoptr (i64 -1 to ptr), ptr null, ptr null, [1 x ptr] zeroinitializer }, ptr null, ptr null, i64 291 }, align 8
@str_utc = internal global i64 0, align 8
@str_empty = internal global i64 0, align 8
@rb_eTypeError = external global i64, align 8
@.str.92 = private unnamed_addr constant [19 x i8] c"uninitialized %li\0B\00", align 1
@.str.132 = private unnamed_addr constant [45 x i8] c"format should have ASCII compatible encoding\00", align 1
@.str.133 = private unnamed_addr constant [41 x i8] c"strftime called with empty format string\00", align 1
@.str.134 = private unnamed_addr constant [21 x i8] c"invalid format: %li\0B\00", align 1

; Function Attrs: inlinehint nounwind sspstrong willreturn memory(read) uwtable
define internal i64 @RB_FL_TEST_RAW(i64 noundef %0, i64 noundef %1) #10 {
  %3 = alloca i64, align 8
  %4 = alloca i64, align 8
  store i64 %0, ptr %3, align 8, !tbaa !11
  store i64 %1, ptr %4, align 8, !tbaa !11
  %5 = load i64, ptr %3, align 8, !tbaa !11
  %6 = inttoptr i64 %5 to ptr
  %7 = getelementptr inbounds nuw %struct.RBasic, ptr %6, i32 0, i32 0
  %8 = load i64, ptr %7, align 8, !tbaa !71
  %9 = load i64, ptr %4, align 8, !tbaa !11
  %10 = and i64 %8, %9
  ret i64 %10
}

; Function Attrs: inlinehint nounwind sspstrong willreturn memory(read) uwtable
define internal zeroext i1 @RB_FL_ANY_RAW(i64 noundef %0, i64 noundef %1) #10 {
  %3 = alloca i64, align 8
  %4 = alloca i64, align 8
  store i64 %0, ptr %3, align 8, !tbaa !11
  store i64 %1, ptr %4, align 8, !tbaa !11
  %5 = load i64, ptr %3, align 8, !tbaa !11
  %6 = load i64, ptr %4, align 8, !tbaa !11
  %7 = call i64 @RB_FL_TEST_RAW(i64 noundef %5, i64 noundef %6) #25
  %8 = icmp ne i64 %7, 0
  ret i1 %8
}

; Function Attrs: inlinehint nounwind sspstrong uwtable
define internal i32 @rb_enc_mbminlen(ptr noundef %0) #4 {
  %2 = alloca ptr, align 8
  store ptr %0, ptr %2, align 8, !tbaa !54
  %3 = load ptr, ptr %2, align 8, !tbaa !54
  %4 = getelementptr inbounds nuw %struct.OnigEncodingTypeST, ptr %3, i32 0, i32 3
  %5 = load i32, ptr %4, align 4, !tbaa !78
  ret i32 %5
}

; Function Attrs: inlinehint nounwind sspstrong willreturn memory(read, argmem: readwrite) uwtable
define internal void @rbimpl_rstring_getmem(ptr dead_on_unwind noalias writable sret(%struct.RString) align 8 %0, i64 noundef %1) #17 {
  %3 = alloca i64, align 8
  store i64 %1, ptr %3, align 8, !tbaa !11
  %4 = load i64, ptr %3, align 8, !tbaa !11
  %5 = call zeroext i1 @RB_FL_ANY_RAW(i64 noundef %4, i64 noundef 8192) #25
  br i1 %5, label %6, label %9

6:                                                ; preds = %2
  %7 = load i64, ptr %3, align 8, !tbaa !11
  %8 = inttoptr i64 %7 to ptr
  call void @llvm.memcpy.p0.p0.i64(ptr align 8 %0, ptr align 8 %8, i64 40, i1 false), !tbaa.struct !77
  br label %20

9:                                                ; preds = %2
  %10 = load i64, ptr %3, align 8, !tbaa !11
  %11 = call i64 @RSTRING_LEN(i64 noundef %10) #25
  %12 = getelementptr inbounds nuw %struct.RString, ptr %0, i32 0, i32 1
  store i64 %11, ptr %12, align 8, !tbaa !75
  %13 = load i64, ptr %3, align 8, !tbaa !11
  %14 = inttoptr i64 %13 to ptr
  %15 = getelementptr inbounds nuw %struct.RString, ptr %14, i32 0, i32 2
  %16 = getelementptr inbounds nuw %struct.anon.16, ptr %15, i32 0, i32 0
  %17 = getelementptr inbounds [1 x i8], ptr %16, i64 0, i64 0
  %18 = getelementptr inbounds nuw %struct.RString, ptr %0, i32 0, i32 2
  %19 = getelementptr inbounds nuw %struct.anon.14, ptr %18, i32 0, i32 0
  store ptr %17, ptr %19, align 8, !tbaa !37
  br label %20

20:                                               ; preds = %9, %6
  ret void
}

; Function Attrs: inlinehint nounwind sspstrong uwtable
define internal zeroext i1 @rb_enc_asciicompat(ptr noundef %0) #4 {
  %2 = alloca i1, align 1
  %3 = alloca ptr, align 8
  store ptr %0, ptr %3, align 8, !tbaa !54
  %4 = load ptr, ptr %3, align 8, !tbaa !54
  %5 = call i32 @rb_enc_mbminlen(ptr noundef %4)
  %6 = icmp ne i32 %5, 1
  br i1 %6, label %7, label %8

7:                                                ; preds = %1
  store i1 false, ptr %2, align 1
  br label %14

8:                                                ; preds = %1
  %9 = load ptr, ptr %3, align 8, !tbaa !54
  %10 = call i32 @rb_enc_dummy_p(ptr noundef %9) #25
  %11 = icmp ne i32 %10, 0
  br i1 %11, label %12, label %13

12:                                               ; preds = %8
  store i1 false, ptr %2, align 1
  br label %14

13:                                               ; preds = %8
  store i1 true, ptr %2, align 1
  br label %14

14:                                               ; preds = %13, %12, %7
  %15 = load i1, ptr %2, align 1
  ret i1 %15
}

; Function Attrs: inlinehint nounwind sspstrong willreturn memory(none) uwtable
define internal zeroext i1 @RB_NIL_P(i64 noundef %0) #5 {
  %2 = alloca i64, align 8
  store i64 %0, ptr %2, align 8, !tbaa !11
  %3 = load i64, ptr %2, align 8, !tbaa !11
  %4 = icmp eq i64 %3, 4
  ret i1 %4
}

; Function Attrs: inlinehint nounwind sspstrong willreturn memory(read) uwtable
define internal i64 @RSTRING_LEN(i64 noundef %0) #10 {
  %2 = alloca i64, align 8
  store i64 %0, ptr %2, align 8, !tbaa !11
  %3 = load i64, ptr %2, align 8, !tbaa !11
  %4 = inttoptr i64 %3 to ptr
  %5 = getelementptr inbounds nuw %struct.RString, ptr %4, i32 0, i32 1
  %6 = load i64, ptr %5, align 8, !tbaa !75
  ret i64 %6
}

; Function Attrs: inlinehint nounwind sspstrong uwtable
define internal ptr @RSTRING_PTR(i64 noundef %0) #4 {
  %2 = alloca i64, align 8
  %3 = alloca ptr, align 8
  %4 = alloca %struct.RString, align 8
  store i64 %0, ptr %2, align 8, !tbaa !11
  call void @llvm.lifetime.start.p0(i64 8, ptr %3) #22
  %5 = load i64, ptr %2, align 8, !tbaa !11
  call void @rbimpl_rstring_getmem(ptr dead_on_unwind writable sret(%struct.RString) align 8 %4, i64 noundef %5) #28
  %6 = getelementptr inbounds nuw %struct.RString, ptr %4, i32 0, i32 2
  %7 = getelementptr inbounds nuw %struct.anon.14, ptr %6, i32 0, i32 0
  %8 = load ptr, ptr %7, align 8, !tbaa !37
  store ptr %8, ptr %3, align 8, !tbaa !25
  %9 = load ptr, ptr %3, align 8, !tbaa !25
  call void @llvm.lifetime.end.p0(i64 8, ptr %3) #22
  ret ptr %9
}

; Function Attrs: inlinehint nounwind sspstrong uwtable
define internal zeroext i1 @rb_enc_str_asciicompat_p(i64 noundef %0) #4 {
  %2 = alloca i64, align 8
  %3 = alloca ptr, align 8
  store i64 %0, ptr %2, align 8, !tbaa !11
  call void @llvm.lifetime.start.p0(i64 8, ptr %3) #22
  %4 = load i64, ptr %2, align 8, !tbaa !11
  %5 = call ptr @rb_enc_get(i64 noundef %4)
  store ptr %5, ptr %3, align 8, !tbaa !54
  %6 = load ptr, ptr %3, align 8, !tbaa !54
  %7 = call zeroext i1 @rb_enc_asciicompat(ptr noundef %6)
  call void @llvm.lifetime.end.p0(i64 8, ptr %3) #22
  ret i1 %7
}

; Function Attrs: inlinehint nounwind sspstrong uwtable
define internal void @force_make_tm(i64 noundef %0, ptr noundef %1) #4 {
  %3 = alloca i64, align 8
  %4 = alloca ptr, align 8
  %5 = alloca i64, align 8
  %6 = alloca i32, align 4
  store i64 %0, ptr %3, align 8, !tbaa !11
  store ptr %1, ptr %4, align 8, !tbaa !18
  call void @llvm.lifetime.start.p0(i64 8, ptr %5) #22
  %7 = load ptr, ptr %4, align 8, !tbaa !18
  %8 = getelementptr inbounds nuw %struct.time_object, ptr %7, i32 0, i32 1
  %9 = getelementptr inbounds nuw %struct.vtm, ptr %8, i32 0, i32 3
  %10 = load i64, ptr %9, align 8, !tbaa !38
  store i64 %10, ptr %5, align 8, !tbaa !11
  %11 = load i64, ptr %5, align 8, !tbaa !11
  %12 = call zeroext i1 @RB_NIL_P(i64 noundef %11) #24
  br i1 %12, label %28, label %13

13:                                               ; preds = %2
  %14 = load i64, ptr %5, align 8, !tbaa !11
  %15 = load i64, ptr @str_empty, align 8, !tbaa !11
  %16 = icmp ne i64 %14, %15
  br i1 %16, label %17, label %28

17:                                               ; preds = %13
  %18 = load i64, ptr %5, align 8, !tbaa !11
  %19 = load i64, ptr @str_utc, align 8, !tbaa !11
  %20 = icmp ne i64 %18, %19
  br i1 %20, label %21, label %28

21:                                               ; preds = %17
  %22 = load i64, ptr %5, align 8, !tbaa !11
  %23 = load i64, ptr %3, align 8, !tbaa !11
  %24 = call i32 @zone_localtime(i64 noundef %22, i64 noundef %23)
  %25 = icmp ne i32 %24, 0
  br i1 %25, label %26, label %27

26:                                               ; preds = %21
  store i32 1, ptr %6, align 4
  br label %38

27:                                               ; preds = %21
  br label %28

28:                                               ; preds = %27, %17, %13, %2
  %29 = load ptr, ptr %4, align 8, !tbaa !18
  %30 = getelementptr inbounds nuw %struct.time_object, ptr %29, i32 0, i32 1
  %31 = getelementptr inbounds nuw %struct.vtm, ptr %30, i32 0, i32 4
  %32 = load i64, ptr %31, align 8
  %33 = and i64 %32, -70368744177665
  %34 = or i64 %33, 0
  store i64 %34, ptr %31, align 8
  %35 = load i64, ptr %3, align 8, !tbaa !11
  %36 = load ptr, ptr %4, align 8, !tbaa !18
  %37 = call i64 @time_get_tm(i64 noundef %35, ptr noundef %36)
  store i32 0, ptr %6, align 4
  br label %38

38:                                               ; preds = %28, %26
  call void @llvm.lifetime.end.p0(i64 8, ptr %5) #22
  %39 = load i32, ptr %6, align 4
  switch i32 %39, label %41 [
    i32 0, label %40
    i32 1, label %40
  ]

40:                                               ; preds = %38, %38
  ret void

41:                                               ; preds = %38
  unreachable
}

; Function Attrs: nounwind sspstrong uwtable
define internal i64 @time_get_tm(i64 noundef %0, ptr noundef %1) #0 {
  %3 = alloca i64, align 8
  %4 = alloca i64, align 8
  %5 = alloca ptr, align 8
  store i64 %0, ptr %4, align 8, !tbaa !11
  store ptr %1, ptr %5, align 8, !tbaa !18
  %6 = load ptr, ptr %5, align 8, !tbaa !18
  %7 = getelementptr inbounds nuw %struct.time_object, ptr %6, i32 0, i32 1
  %8 = getelementptr inbounds nuw %struct.vtm, ptr %7, i32 0, i32 4
  %9 = load i64, ptr %8, align 8
  %10 = lshr i64 %9, 43
  %11 = and i64 %10, 7
  %12 = trunc i64 %11 to i32
  %13 = icmp eq i32 %12, 1
  br i1 %13, label %14, label %17

14:                                               ; preds = %2
  %15 = load i64, ptr %4, align 8, !tbaa !11
  %16 = call i64 @time_gmtime(i64 noundef %15)
  store i64 %16, ptr %3, align 8
  br label %32

17:                                               ; preds = %2
  %18 = load ptr, ptr %5, align 8, !tbaa !18
  %19 = getelementptr inbounds nuw %struct.time_object, ptr %18, i32 0, i32 1
  %20 = getelementptr inbounds nuw %struct.vtm, ptr %19, i32 0, i32 4
  %21 = load i64, ptr %20, align 8
  %22 = lshr i64 %21, 43
  %23 = and i64 %22, 7
  %24 = trunc i64 %23 to i32
  %25 = icmp eq i32 %24, 2
  br i1 %25, label %26, label %29

26:                                               ; preds = %17
  %27 = load i64, ptr %4, align 8, !tbaa !11
  %28 = call i64 @time_fixoff(i64 noundef %27)
  store i64 %28, ptr %3, align 8
  br label %32

29:                                               ; preds = %17
  %30 = load i64, ptr %4, align 8, !tbaa !11
  %31 = call i64 @time_localtime(i64 noundef %30)
  store i64 %31, ptr %3, align 8
  br label %32

32:                                               ; preds = %29, %26, %14
  %33 = load i64, ptr %3, align 8
  ret i64 %33
}

; Function Attrs: nounwind sspstrong uwtable
define internal ptr @get_timeval(i64 noundef %0) #0 {
  %2 = alloca i64, align 8
  %3 = alloca ptr, align 8
  store i64 %0, ptr %2, align 8, !tbaa !11
  call void @llvm.lifetime.start.p0(i64 8, ptr %3) #22
  %4 = load i64, ptr %2, align 8, !tbaa !11
  %5 = call ptr @rb_check_typeddata(i64 noundef %4, ptr noundef @time_data_type)
  store ptr %5, ptr %3, align 8, !tbaa !18
  %6 = load ptr, ptr %3, align 8, !tbaa !18
  %7 = getelementptr inbounds nuw %struct.time_object, ptr %6, i32 0, i32 1
  %8 = getelementptr inbounds nuw %struct.vtm, ptr %7, i32 0, i32 4
  %9 = load i64, ptr %8, align 8
  %10 = lshr i64 %9, 43
  %11 = and i64 %10, 7
  %12 = trunc i64 %11 to i32
  %13 = icmp ne i32 %12, 3
  br i1 %13, label %18, label %14

14:                                               ; preds = %1
  %15 = load i64, ptr @rb_eTypeError, align 8, !tbaa !11
  %16 = load i64, ptr %2, align 8, !tbaa !11
  %17 = call i64 @rb_obj_class(i64 noundef %16)
  call void (i64, ptr, ...) @rb_raise(i64 noundef %15, ptr noundef @.str.92, i64 noundef %17) #23
  unreachable

18:                                               ; preds = %1
  %19 = load ptr, ptr %3, align 8, !tbaa !18
  call void @llvm.lifetime.end.p0(i64 8, ptr %3) #22
  ret ptr %19
}

; Function Attrs: nounwind sspstrong uwtable
define internal i64 @time_strftime(i64 noundef %0, i64 noundef %1) #0 {
  %3 = alloca i64, align 8
  %4 = alloca i64, align 8
  %5 = alloca i64, align 8
  %6 = alloca ptr, align 8
  %7 = alloca ptr, align 8
  %8 = alloca i64, align 8
  %9 = alloca ptr, align 8
  %10 = alloca i64, align 8
  %11 = alloca i32, align 4
  %12 = alloca i64, align 8
  store i64 %0, ptr %4, align 8, !tbaa !11
  store i64 %1, ptr %5, align 8, !tbaa !11
  call void @llvm.lifetime.start.p0(i64 8, ptr %6) #22
  call void @llvm.lifetime.start.p0(i64 8, ptr %7) #22
  call void @llvm.lifetime.start.p0(i64 8, ptr %8) #22
  call void @llvm.lifetime.start.p0(i64 8, ptr %9) #22
  call void @llvm.lifetime.start.p0(i64 8, ptr %10) #22
  %13 = load i64, ptr %4, align 8, !tbaa !11
  %14 = call ptr @get_timeval(i64 noundef %13)
  store ptr %14, ptr %6, align 8, !tbaa !18
  br label %15

15:                                               ; preds = %2
  br label %16

16:                                               ; preds = %15
  %17 = load ptr, ptr %6, align 8, !tbaa !18
  %18 = getelementptr inbounds nuw %struct.time_object, ptr %17, i32 0, i32 1
  %19 = getelementptr inbounds nuw %struct.vtm, ptr %18, i32 0, i32 4
  %20 = load i64, ptr %19, align 8
  %21 = lshr i64 %20, 46
  %22 = and i64 %21, 1
  %23 = trunc i64 %22 to i32
  %24 = icmp eq i32 %23, 0
  br i1 %24, label %25, label %29

25:                                               ; preds = %16
  %26 = load i64, ptr %4, align 8, !tbaa !11
  %27 = load ptr, ptr %6, align 8, !tbaa !18
  %28 = call i64 @time_get_tm(i64 noundef %26, ptr noundef %27)
  br label %29

29:                                               ; preds = %25, %16
  br label %30

30:                                               ; preds = %29
  br label %31

31:                                               ; preds = %30
  %32 = load ptr, ptr %6, align 8, !tbaa !18
  %33 = getelementptr inbounds nuw %struct.time_object, ptr %32, i32 0, i32 1
  %34 = getelementptr inbounds nuw %struct.vtm, ptr %33, i32 0, i32 4
  %35 = load i64, ptr %34, align 8
  %36 = and i64 %35, 511
  %37 = trunc i64 %36 to i32
  %38 = icmp ne i32 %37, 0
  br i1 %38, label %42, label %39

39:                                               ; preds = %31
  %40 = load i64, ptr %4, align 8, !tbaa !11
  %41 = load ptr, ptr %6, align 8, !tbaa !18
  call void @force_make_tm(i64 noundef %40, ptr noundef %41)
  br label %42

42:                                               ; preds = %39, %31
  br label %43

43:                                               ; preds = %42
  br label %44

44:                                               ; preds = %43
  %45 = call i64 @rb_string_value(ptr noundef %5)
  %46 = load i64, ptr %5, align 8, !tbaa !11
  %47 = call zeroext i1 @rb_enc_str_asciicompat_p(i64 noundef %46)
  br i1 %47, label %50, label %48

48:                                               ; preds = %44
  %49 = load i64, ptr @rb_eArgError, align 8, !tbaa !11
  call void (i64, ptr, ...) @rb_raise(i64 noundef %49, ptr noundef @.str.132) #23
  unreachable

50:                                               ; preds = %44
  %51 = load i64, ptr %5, align 8, !tbaa !11
  %52 = call i64 @rb_str_tmp_frozen_acquire(i64 noundef %51)
  store i64 %52, ptr %10, align 8, !tbaa !11
  %53 = load i64, ptr %10, align 8, !tbaa !11
  %54 = call ptr @RSTRING_PTR(i64 noundef %53)
  store ptr %54, ptr %7, align 8, !tbaa !25
  %55 = load i64, ptr %10, align 8, !tbaa !11
  %56 = call i64 @RSTRING_LEN(i64 noundef %55) #25
  store i64 %56, ptr %8, align 8, !tbaa !11
  %57 = load i64, ptr %5, align 8, !tbaa !11
  %58 = call ptr @rb_enc_get(i64 noundef %57)
  store ptr %58, ptr %9, align 8, !tbaa !54
  %59 = load i64, ptr %8, align 8, !tbaa !11
  %60 = icmp eq i64 %59, 0
  br i1 %60, label %61, label %64

61:                                               ; preds = %50
  call void (ptr, ...) @rb_warning(ptr noundef @.str.133)
  %62 = load ptr, ptr %9, align 8, !tbaa !54
  %63 = call i64 @rb_enc_str_new_static(ptr noundef null, i64 noundef 0, ptr noundef %62)
  store i64 %63, ptr %3, align 8
  store i32 1, ptr %11, align 4
  br label %93

64:                                               ; preds = %50
  call void @llvm.lifetime.start.p0(i64 8, ptr %12) #22
  %65 = load ptr, ptr %7, align 8, !tbaa !25
  %66 = load i64, ptr %8, align 8, !tbaa !11
  %67 = load ptr, ptr %9, align 8, !tbaa !54
  %68 = load i64, ptr %4, align 8, !tbaa !11
  %69 = load ptr, ptr %6, align 8, !tbaa !18
  %70 = getelementptr inbounds nuw %struct.time_object, ptr %69, i32 0, i32 1
  %71 = load ptr, ptr %6, align 8, !tbaa !18
  %72 = getelementptr inbounds nuw %struct.time_object, ptr %71, i32 0, i32 0
  %73 = load i64, ptr %72, align 8, !tbaa !33
  %74 = load ptr, ptr %6, align 8, !tbaa !18
  %75 = getelementptr inbounds nuw %struct.time_object, ptr %74, i32 0, i32 1
  %76 = getelementptr inbounds nuw %struct.vtm, ptr %75, i32 0, i32 4
  %77 = load i64, ptr %76, align 8
  %78 = lshr i64 %77, 43
  %79 = and i64 %78, 7
  %80 = trunc i64 %79 to i32
  %81 = icmp eq i32 %80, 1
  %82 = zext i1 %81 to i32
  %83 = call i64 @rb_strftime_alloc(ptr noundef %65, i64 noundef %66, ptr noundef %67, i64 noundef %68, ptr noundef %70, i64 noundef %73, i32 noundef %82)
  store i64 %83, ptr %12, align 8, !tbaa !11
  %84 = load i64, ptr %5, align 8, !tbaa !11
  %85 = load i64, ptr %10, align 8, !tbaa !11
  call void @rb_str_tmp_frozen_release(i64 noundef %84, i64 noundef %85)
  %86 = load i64, ptr %12, align 8, !tbaa !11
  %87 = icmp ne i64 %86, 0
  br i1 %87, label %91, label %88

88:                                               ; preds = %64
  %89 = load i64, ptr @rb_eArgError, align 8, !tbaa !11
  %90 = load i64, ptr %5, align 8, !tbaa !11
  call void (i64, ptr, ...) @rb_raise(i64 noundef %89, ptr noundef @.str.134, i64 noundef %90) #23
  unreachable

91:                                               ; preds = %64
  %92 = load i64, ptr %12, align 8, !tbaa !11
  store i64 %92, ptr %3, align 8
  store i32 1, ptr %11, align 4
  call void @llvm.lifetime.end.p0(i64 8, ptr %12) #22
  br label %93

93:                                               ; preds = %91, %61
  call void @llvm.lifetime.end.p0(i64 8, ptr %10) #22
  call void @llvm.lifetime.end.p0(i64 8, ptr %9) #22
  call void @llvm.lifetime.end.p0(i64 8, ptr %8) #22
  call void @llvm.lifetime.end.p0(i64 8, ptr %7) #22
  call void @llvm.lifetime.end.p0(i64 8, ptr %6) #22
  %94 = load i64, ptr %3, align 8
  ret i64 %94
}