; Function Attrs: nounwind sspstrong uwtable
define internal i64 @time_strftime(i64 noundef %0, i64 noundef %1) #1 {
  %3 = alloca i64, align 8
  store i64 %1, ptr %3, align 8, !tbaa !11
  %4 = tail call ptr @rb_check_typeddata(i64 noundef %0, ptr noundef nonnull @time_data_type) #21
  %5 = getelementptr inbounds nuw i8, ptr %4, i64 40
  %6 = load i64, ptr %5, align 8
  %7 = and i64 %6, 61572651155456
  %.not.i = icmp eq i64 %7, 26388279066624
  br i1 %.not.i, label %8, label %get_timeval.exit

8:                                                ; preds = %2
  %9 = load i64, ptr @rb_eTypeError, align 8, !tbaa !11
  %10 = tail call i64 @rb_obj_class(i64 noundef %0) #21
  tail call void (i64, ptr, ...) @rb_raise(i64 noundef %9, ptr noundef nonnull @.str.92, i64 noundef %10) #22
  unreachable

get_timeval.exit:                                 ; preds = %2
  %11 = getelementptr inbounds nuw i8, ptr %4, i64 8
  %12 = and i64 %6, 70368744177664
  %13 = icmp eq i64 %12, 0
  br i1 %13, label %14, label %time_get_tm.exit

14:                                               ; preds = %get_timeval.exit
  %15 = lshr i64 %6, 43
  %16 = trunc nuw nsw i64 %15 to i32
  %17 = and i32 %16, 7
  switch i32 %17, label %22 [
    i32 1, label %18
    i32 2, label %20
  ]

18:                                               ; preds = %14
  %19 = tail call i64 @time_gmtime(i64 noundef %0)
  br label %time_get_tm.exit

20:                                               ; preds = %14
  %21 = tail call fastcc i64 @time_fixoff(i64 noundef %0)
  br label %time_get_tm.exit

22:                                               ; preds = %14
  %23 = tail call fastcc i64 @time_localtime(i64 noundef %0)
  br label %time_get_tm.exit

time_get_tm.exit:                                 ; preds = %22, %20, %18, %get_timeval.exit
  %24 = load i64, ptr %5, align 8
  %25 = and i64 %24, 511
  %.not = icmp eq i64 %25, 0
  br i1 %.not, label %26, label %force_make_tm.exit

26:                                               ; preds = %time_get_tm.exit
  %27 = getelementptr inbounds nuw i8, ptr %4, i64 32
  %28 = load i64, ptr %27, align 8, !tbaa !29
  %29 = icmp eq i64 %28, 4
  %30 = load i64, ptr @str_empty, align 8
  %.not.i24 = icmp eq i64 %28, %30
  %or.cond.i = select i1 %29, i1 true, i1 %.not.i24
  %31 = load i64, ptr @str_utc, align 8
  %.not8.i = icmp eq i64 %28, %31
  %or.cond10.i = select i1 %or.cond.i, i1 true, i1 %.not8.i
  br i1 %or.cond10.i, label %34, label %32

32:                                               ; preds = %26
  %33 = tail call fastcc i32 @zone_localtime(i64 noundef %28, i64 noundef %0)
  %.not9.i = icmp eq i32 %33, 0
  br i1 %.not9.i, label %._crit_edge, label %force_make_tm.exit

._crit_edge:                                      ; preds = %32
  %.pre = load i64, ptr %5, align 8
  br label %34

34:                                               ; preds = %._crit_edge, %26
  %35 = phi i64 [ %.pre, %._crit_edge ], [ %24, %26 ]
  %36 = and i64 %35, -70368744177665
  store i64 %36, ptr %5, align 8
  %37 = lshr i64 %35, 43
  %38 = trunc nuw nsw i64 %37 to i32
  %39 = and i32 %38, 7
  switch i32 %39, label %44 [
    i32 1, label %40
    i32 2, label %42
  ]

40:                                               ; preds = %34
  %41 = tail call i64 @time_gmtime(i64 noundef %0)
  br label %force_make_tm.exit

42:                                               ; preds = %34
  %43 = tail call fastcc i64 @time_fixoff(i64 noundef %0)
  br label %force_make_tm.exit

44:                                               ; preds = %34
  %45 = tail call fastcc i64 @time_localtime(i64 noundef %0)
  br label %force_make_tm.exit

force_make_tm.exit:                               ; preds = %44, %42, %40, %32, %time_get_tm.exit
  %46 = call i64 @rb_string_value(ptr noundef nonnull %3) #21
  %47 = load i64, ptr %3, align 8, !tbaa !11
  %48 = call ptr @rb_enc_get(i64 noundef %47) #21
  %49 = getelementptr i8, ptr %48, i64 20
  %.val.i.i = load i32, ptr %49, align 4, !tbaa !49
  %.not.i.i = icmp eq i32 %.val.i.i, 1
  br i1 %.not.i.i, label %rb_enc_str_asciicompat_p.exit, label %rb_enc_str_asciicompat_p.exit.thread

rb_enc_str_asciicompat_p.exit:                    ; preds = %force_make_tm.exit
  %50 = call i32 @rb_enc_dummy_p(ptr noundef nonnull readonly %48) #24
  %.not3.i.i = icmp eq i32 %50, 0
  br i1 %.not3.i.i, label %52, label %rb_enc_str_asciicompat_p.exit.thread

rb_enc_str_asciicompat_p.exit.thread:             ; preds = %force_make_tm.exit, %rb_enc_str_asciicompat_p.exit
  %51 = load i64, ptr @rb_eArgError, align 8, !tbaa !11
  call void (i64, ptr, ...) @rb_raise(i64 noundef %51, ptr noundef nonnull @.str.132) #22
  unreachable

52:                                               ; preds = %rb_enc_str_asciicompat_p.exit
  %53 = load i64, ptr %3, align 8, !tbaa !11
  %54 = call i64 @rb_str_tmp_frozen_acquire(i64 noundef %53) #21
  %55 = inttoptr i64 %54 to ptr
  %56 = load i64, ptr %55, align 8, !tbaa !15, !noalias !66
  %57 = and i64 %56, 8192
  %.not.i.i25 = icmp eq i64 %57, 0
  %58 = getelementptr inbounds nuw i8, ptr %55, i64 24
  br i1 %.not.i.i25, label %RSTRING_PTR.exit, label %59

59:                                               ; preds = %52
  %.sroa.2.0.copyload.i = load ptr, ptr %58, align 8
  br label %RSTRING_PTR.exit

RSTRING_PTR.exit:                                 ; preds = %52, %59
  %.sroa.2.0.i = phi ptr [ %.sroa.2.0.copyload.i, %59 ], [ %58, %52 ]
  %60 = getelementptr inbounds nuw i8, ptr %55, i64 16
  %61 = load i64, ptr %60, align 8, !tbaa !52
  %62 = load i64, ptr %3, align 8, !tbaa !11
  %63 = call ptr @rb_enc_get(i64 noundef %62) #21
  %64 = icmp eq i64 %61, 0
  br i1 %64, label %65, label %67

65:                                               ; preds = %RSTRING_PTR.exit
  call void (ptr, ...) @rb_warning(ptr noundef nonnull @.str.133) #21
  %66 = call i64 @rb_enc_str_new_static(ptr noundef null, i64 noundef 0, ptr noundef %63) #21
  br label %78

67:                                               ; preds = %RSTRING_PTR.exit
  %68 = load i64, ptr %4, align 8, !tbaa !25
  %69 = load i64, ptr %5, align 8
  %70 = and i64 %69, 61572651155456
  %71 = icmp eq i64 %70, 8796093022208
  %72 = zext i1 %71 to i32
  %73 = call fastcc i64 @rb_strftime_alloc(ptr noundef %.sroa.2.0.i, i64 noundef %61, ptr noundef %63, i64 noundef %0, ptr noundef nonnull %11, i64 noundef %68, i32 noundef %72)
  %74 = load i64, ptr %3, align 8, !tbaa !11
  call void @rb_str_tmp_frozen_release(i64 noundef %74, i64 noundef %54) #21
  %.not23 = icmp eq i64 %73, 0
  br i1 %.not23, label %75, label %78

75:                                               ; preds = %67
  %76 = load i64, ptr @rb_eArgError, align 8, !tbaa !11
  %77 = load i64, ptr %3, align 8, !tbaa !11
  call void (i64, ptr, ...) @rb_raise(i64 noundef %76, ptr noundef nonnull @.str.134, i64 noundef %77) #22
  unreachable

78:                                               ; preds = %67, %65
  %.0 = phi i64 [ %66, %65 ], [ %73, %67 ]
  ret i64 %.0
}